target datalayout = "e-m:e-p270:32:32-p271:32:32-p272:64:64-i64:64-i128:128-f80:128-n8:16:32:64-S128"
target triple = "x86_64-pc-linux-gnu"

%struct._generic_SUNAdaptController = type { ptr, ptr, ptr }
%struct._SUNAdaptControllerContent_Soderlind = type { double, double, double, double, double, double, double, double, double, double, i32 }

; Function Attrs: nounwind uwtable
define i32 @SUNAdaptController_SetParams_ExpGus(ptr noundef %0, double noundef %1, double noundef %2) #0 {
  %4 = alloca ptr, align 8
  %5 = alloca double, align 8
  %6 = alloca double, align 8
  %7 = alloca ptr, align 8
  store ptr %0, ptr %4, align 8, !tbaa !8
  store double %1, ptr %5, align 8, !tbaa !25
  store double %2, ptr %6, align 8, !tbaa !25
  call void @llvm.lifetime.start.p0(i64 8, ptr %7) #5
  %8 = load ptr, ptr %4, align 8, !tbaa !8
  %9 = getelementptr inbounds nuw %struct._generic_SUNAdaptController, ptr %8, i32 0, i32 2
  %10 = load ptr, ptr %9, align 8, !tbaa !31
  store ptr %10, ptr %7, align 8, !tbaa !3
  %11 = load double, ptr %5, align 8, !tbaa !25
  %12 = load double, ptr %6, align 8, !tbaa !25
  %13 = fadd double %11, %12
  %14 = load ptr, ptr %4, align 8, !tbaa !8
  %15 = getelementptr inbounds nuw %struct._generic_SUNAdaptController, ptr %14, i32 0, i32 0
  %16 = load ptr, ptr %15, align 8, !tbaa !24
  %17 = getelementptr inbounds nuw %struct._SUNAdaptControllerContent_Soderlind, ptr %16, i32 0, i32 0
  store double %13, ptr %17, align 8, !tbaa !32
  %18 = load double, ptr %6, align 8, !tbaa !25
  %19 = fneg double %18
  %20 = load ptr, ptr %4, align 8, !tbaa !8
  %21 = getelementptr inbounds nuw %struct._generic_SUNAdaptController, ptr %20, i32 0, i32 0
  %22 = load ptr, ptr %21, align 8, !tbaa !24
  %23 = getelementptr inbounds nuw %struct._SUNAdaptControllerContent_Soderlind, ptr %22, i32 0, i32 1
  store double %19, ptr %23, align 8, !tbaa !34
  %24 = load ptr, ptr %4, align 8, !tbaa !8
  %25 = getelementptr inbounds nuw %struct._generic_SUNAdaptController, ptr %24, i32 0, i32 0
  %26 = load ptr, ptr %25, align 8, !tbaa !24
  %27 = getelementptr inbounds nuw %struct._SUNAdaptControllerContent_Soderlind, ptr %26, i32 0, i32 2
  store double 0.000000e+00, ptr %27, align 8, !tbaa !35
  %28 = load ptr, ptr %4, align 8, !tbaa !8
  %29 = getelementptr inbounds nuw %struct._generic_SUNAdaptController, ptr %28, i32 0, i32 0
  %30 = load ptr, ptr %29, align 8, !tbaa !24
  %31 = getelementptr inbounds nuw %struct._SUNAdaptControllerContent_Soderlind, ptr %30, i32 0, i32 3
  store double 0.000000e+00, ptr %31, align 8, !tbaa !36
  %32 = load ptr, ptr %4, align 8, !tbaa !8
  %33 = getelementptr inbounds nuw %struct._generic_SUNAdaptController, ptr %32, i32 0, i32 0
  %34 = load ptr, ptr %33, align 8, !tbaa !24
  %35 = getelementptr inbounds nuw %struct._SUNAdaptControllerContent_Soderlind, ptr %34, i32 0, i32 4
  store double 0.000000e+00, ptr %35, align 8, !tbaa !37
  call void @llvm.lifetime.end.p0(i64 8, ptr %7) #5
  ret i32 0
}