; Function Attrs: mustprogress nofree norecurse nosync nounwind willreturn memory(write, argmem: readwrite, inaccessiblemem: none) uwtable
define noundef i32 @SUNAdaptController_SetParams_ExpGus(ptr noundef readonly captures(none) %0, double noundef %1, double noundef %2) local_unnamed_addr #3 {
  %4 = fadd double %1, %2
  %5 = load ptr, ptr %0, align 8, !tbaa !19
  store double %4, ptr %5, align 8, !tbaa !20
  %6 = fneg double %2
  %7 = getelementptr inbounds nuw i8, ptr %5, i64 8
  store double %6, ptr %7, align 8, !tbaa !24
  %8 = getelementptr inbounds nuw i8, ptr %5, i64 16
  tail call void @llvm.memset.p0.i64(ptr noundef nonnull align 8 dereferenceable(24) %8, i8 0, i64 24, i1 false)
  ret i32 0
}